; ModuleID = '33/597.c'
source_filename = "33/597.c"
target datalayout = "e-m:e-p270:32:32-p271:32:32-p272:64:64-i64:64-f80:128-n8:16:32:64-S128"
target triple = "x86_64-pc-linux-gnu"

%struct.point = type { [300 x i8] }

@.str = private unnamed_addr constant [3 x i8] c"%d\00", align 1
@.str.1 = private unnamed_addr constant [3 x i8] c"%s\00", align 1
@.str.2 = private unnamed_addr constant [4 x i8] c"%s\0A\00", align 1

; Function Attrs: noinline nounwind uwtable
define dso_local i32 @main() #0 {
  %1 = alloca i32, align 4
  %2 = alloca i32, align 4
  %3 = alloca i32, align 4
  %4 = alloca i32, align 4
  %5 = alloca [1000 x %struct.point], align 16
  store i32 0, i32* %1, align 4
  %6 = call i32 (i8*, ...) @__isoc99_scanf(i8* getelementptr inbounds ([3 x i8], [3 x i8]* @.str, i64 0, i64 0), i32* %2)
  store i32 0, i32* %3, align 4
  br label %7

7:                                                ; preds = %18, %0
  %8 = load i32, i32* %3, align 4
  %9 = load i32, i32* %2, align 4
  %10 = icmp slt i32 %8, %9
  br i1 %10, label %11, label %21

11:                                               ; preds = %7
  %12 = load i32, i32* %3, align 4
  %13 = sext i32 %12 to i64
  %14 = getelementptr inbounds [1000 x %struct.point], [1000 x %struct.point]* %5, i64 0, i64 %13
  %15 = getelementptr inbounds %struct.point, %struct.point* %14, i32 0, i32 0
  %16 = getelementptr inbounds [300 x i8], [300 x i8]* %15, i64 0, i64 0
  %17 = call i32 (i8*, ...) @__isoc99_scanf(i8* getelementptr inbounds ([3 x i8], [3 x i8]* @.str.1, i64 0, i64 0), i8* %16)
  br label %18

18:                                               ; preds = %11
  %19 = load i32, i32* %3, align 4
  %20 = add nsw i32 %19, 1
  store i32 %20, i32* %3, align 4
  br label %7

21:                                               ; preds = %7
  store i32 0, i32* %3, align 4
  br label %22

22:                                               ; preds = %150, %21
  %23 = load i32, i32* %3, align 4
  %24 = load i32, i32* %2, align 4
  %25 = icmp slt i32 %23, %24
  br i1 %25, label %26, label %153

26:                                               ; preds = %22
  store i32 0, i32* %4, align 4
  br label %27

27:                                               ; preds = %115, %26
  %28 = load i32, i32* %3, align 4
  %29 = sext i32 %28 to i64
  %30 = getelementptr inbounds [1000 x %struct.point], [1000 x %struct.point]* %5, i64 0, i64 %29
  %31 = getelementptr inbounds %struct.point, %struct.point* %30, i32 0, i32 0
  %32 = load i32, i32* %4, align 4
  %33 = sext i32 %32 to i64
  %34 = getelementptr inbounds [300 x i8], [300 x i8]* %31, i64 0, i64 %33
  %35 = load i8, i8* %34, align 1
  %36 = sext i8 %35 to i32
  %37 = icmp ne i32 %36, 0
  br i1 %37, label %38, label %118

38:                                               ; preds = %27
  %39 = load i32, i32* %3, align 4
  %40 = sext i32 %39 to i64
  %41 = getelementptr inbounds [1000 x %struct.point], [1000 x %struct.point]* %5, i64 0, i64 %40
  %42 = getelementptr inbounds %struct.point, %struct.point* %41, i32 0, i32 0
  %43 = load i32, i32* %4, align 4
  %44 = sext i32 %43 to i64
  %45 = getelementptr inbounds [300 x i8], [300 x i8]* %42, i64 0, i64 %44
  %46 = load i8, i8* %45, align 1
  %47 = sext i8 %46 to i32
  %48 = icmp eq i32 %47, 65
  br i1 %48, label %49, label %57

49:                                               ; preds = %38
  %50 = load i32, i32* %3, align 4
  %51 = sext i32 %50 to i64
  %52 = getelementptr inbounds [1000 x %struct.point], [1000 x %struct.point]* %5, i64 0, i64 %51
  %53 = getelementptr inbounds %struct.point, %struct.point* %52, i32 0, i32 0
  %54 = load i32, i32* %4, align 4
  %55 = sext i32 %54 to i64
  %56 = getelementptr inbounds [300 x i8], [300 x i8]* %53, i64 0, i64 %55
  store i8 84, i8* %56, align 1
  br label %115

57:                                               ; preds = %38
  %58 = load i32, i32* %3, align 4
  %59 = sext i32 %58 to i64
  %60 = getelementptr inbounds [1000 x %struct.point], [1000 x %struct.point]* %5, i64 0, i64 %59
  %61 = getelementptr inbounds %struct.point, %struct.point* %60, i32 0, i32 0
  %62 = load i32, i32* %4, align 4
  %63 = sext i32 %62 to i64
  %64 = getelementptr inbounds [300 x i8], [300 x i8]* %61, i64 0, i64 %63
  %65 = load i8, i8* %64, align 1
  %66 = sext i8 %65 to i32
  %67 = icmp eq i32 %66, 84
  br i1 %67, label %68, label %76

68:                                               ; preds = %57
  %69 = load i32, i32* %3, align 4
  %70 = sext i32 %69 to i64
  %71 = getelementptr inbounds [1000 x %struct.point], [1000 x %struct.point]* %5, i64 0, i64 %70
  %72 = getelementptr inbounds %struct.point, %struct.point* %71, i32 0, i32 0
  %73 = load i32, i32* %4, align 4
  %74 = sext i32 %73 to i64
  %75 = getelementptr inbounds [300 x i8], [300 x i8]* %72, i64 0, i64 %74
  store i8 65, i8* %75, align 1
  br label %115

76:                                               ; preds = %57
  %77 = load i32, i32* %3, align 4
  %78 = sext i32 %77 to i64
  %79 = getelementptr inbounds [1000 x %struct.point], [1000 x %struct.point]* %5, i64 0, i64 %78
  %80 = getelementptr inbounds %struct.point, %struct.point* %79, i32 0, i32 0
  %81 = load i32, i32* %4, align 4
  %82 = sext i32 %81 to i64
  %83 = getelementptr inbounds [300 x i8], [300 x i8]* %80, i64 0, i64 %82
  %84 = load i8, i8* %83, align 1
  %85 = sext i8 %84 to i32
  %86 = icmp eq i32 %85, 67
  br i1 %86, label %87, label %95

87:                                               ; preds = %76
  %88 = load i32, i32* %3, align 4
  %89 = sext i32 %88 to i64
  %90 = getelementptr inbounds [1000 x %struct.point], [1000 x %struct.point]* %5, i64 0, i64 %89
  %91 = getelementptr inbounds %struct.point, %struct.point* %90, i32 0, i32 0
  %92 = load i32, i32* %4, align 4
  %93 = sext i32 %92 to i64
  %94 = getelementptr inbounds [300 x i8], [300 x i8]* %91, i64 0, i64 %93
  store i8 71, i8* %94, align 1
  br label %115

95:                                               ; preds = %76
  %96 = load i32, i32* %3, align 4
  %97 = sext i32 %96 to i64
  %98 = getelementptr inbounds [1000 x %struct.point], [1000 x %struct.point]* %5, i64 0, i64 %97
  %99 = getelementptr inbounds %struct.point, %struct.point* %98, i32 0, i32 0
  %100 = load i32, i32* %4, align 4
  %101 = sext i32 %100 to i64
  %102 = getelementptr inbounds [300 x i8], [300 x i8]* %99, i64 0, i64 %101
  %103 = load i8, i8* %102, align 1
  %104 = sext i8 %103 to i32
  %105 = icmp eq i32 %104, 71
  br i1 %105, label %106, label %114

106:                                              ; preds = %95
  %107 = load i32, i32* %3, align 4
  %108 = sext i32 %107 to i64
  %109 = getelementptr inbounds [1000 x %struct.point], [1000 x %struct.point]* %5, i64 0, i64 %108
  %110 = getelementptr inbounds %struct.point, %struct.point* %109, i32 0, i32 0
  %111 = load i32, i32* %4, align 4
  %112 = sext i32 %111 to i64
  %113 = getelementptr inbounds [300 x i8], [300 x i8]* %110, i64 0, i64 %112
  store i8 67, i8* %113, align 1
  br label %115

114:                                              ; preds = %95
  br label %115

115:                                              ; preds = %114, %106, %87, %68, %49
  %116 = load i32, i32* %4, align 4
  %117 = add nsw i32 %116, 1
  store i32 %117, i32* %4, align 4
  br label %27

118:                                              ; preds = %27
  %119 = load i32, i32* %3, align 4
  %120 = sext i32 %119 to i64
  %121 = getelementptr inbounds [1000 x %struct.point], [1000 x %struct.point]* %5, i64 0, i64 %120
  %122 = getelementptr inbounds %struct.point, %struct.point* %121, i32 0, i32 0
  %123 = load i32, i32* %4, align 4
  %124 = sext i32 %123 to i64
  %125 = getelementptr inbounds [300 x i8], [300 x i8]* %122, i64 0, i64 %124
  store i8 0, i8* %125, align 1
  %126 = load i32, i32* %3, align 4
  %127 = load i32, i32* %2, align 4
  %128 = sub nsw i32 %127, 1
  %129 = icmp slt i32 %126, %128
  br i1 %129, label %130, label %137

130:                                              ; preds = %118
  %131 = load i32, i32* %3, align 4
  %132 = sext i32 %131 to i64
  %133 = getelementptr inbounds [1000 x %struct.point], [1000 x %struct.point]* %5, i64 0, i64 %132
  %134 = getelementptr inbounds %struct.point, %struct.point* %133, i32 0, i32 0
  %135 = getelementptr inbounds [300 x i8], [300 x i8]* %134, i64 0, i64 0
  %136 = call i32 (i8*, ...) @printf(i8* getelementptr inbounds ([4 x i8], [4 x i8]* @.str.2, i64 0, i64 0), i8* %135)
  br label %137

137:                                              ; preds = %130, %118
  %138 = load i32, i32* %3, align 4
  %139 = load i32, i32* %2, align 4
  %140 = sub nsw i32 %139, 1
  %141 = icmp eq i32 %138, %140
  br i1 %141, label %142, label %149

142:                                              ; preds = %137
  %143 = load i32, i32* %3, align 4
  %144 = sext i32 %143 to i64
  %145 = getelementptr inbounds [1000 x %struct.point], [1000 x %struct.point]* %5, i64 0, i64 %144
  %146 = getelementptr inbounds %struct.point, %struct.point* %145, i32 0, i32 0
  %147 = getelementptr inbounds [300 x i8], [300 x i8]* %146, i64 0, i64 0
  %148 = call i32 (i8*, ...) @printf(i8* getelementptr inbounds ([3 x i8], [3 x i8]* @.str.1, i64 0, i64 0), i8* %147)
  br label %149

149:                                              ; preds = %142, %137
  br label %150

150:                                              ; preds = %149
  %151 = load i32, i32* %3, align 4
  %152 = add nsw i32 %151, 1
  store i32 %152, i32* %3, align 4
  br label %22

153:                                              ; preds = %22
  ret i32 0
}

declare dso_local i32 @__isoc99_scanf(i8*, ...) #1

declare dso_local i32 @printf(i8*, ...) #1


!llvm.module.flags = !{!0}
!llvm.ident = !{!1}

!0 = !{i32 1, !"wchar_size", i32 4}
!1 = !{!"clang version 10.0.0-4ubuntu1 "}
